target datalayout = "e-m:e-p270:32:32-p271:32:32-p272:64:64-i64:64-i128:128-f80:128-n8:16:32:64-S128"
target triple = "x86_64-pc-linux-gnu"

%struct.AVFilterContext = type { ptr, ptr, ptr, ptr, ptr, i32, ptr, ptr, i32, ptr, ptr, i32, i32, ptr, ptr, ptr, ptr, i32, ptr, i32, i32 }
%struct.HDCDContext = type { ptr, [2 x %struct.hdcd_state], i32, i32, i32, i32, i32, i32, i32, ptr, i32, i32, %struct.hdcd_detection_data }
%struct.hdcd_state = type { i64, i8, i8, i8, i32, i32, i32, i32, i32, i32, i32, i32, i32, i32, i32, [16 x i32], i32, i32, i32, i32 }
%struct.hdcd_detection_data = type { i32, i32, i32, i32, i32, i32, float, i32, i32 }

@.str.55 = private unnamed_addr constant [40 x i8] c"Disabling automatic format conversion.\0A\00", align 1

; Function Attrs: cold nounwind optsize uwtable
define internal i32 @init(ptr noundef %0) #0 {
  %2 = alloca ptr, align 8
  %3 = alloca ptr, align 8
  store ptr %0, ptr %2, align 8, !tbaa !4
  call void @llvm.lifetime.start.p0(i64 8, ptr %3) #7
  %4 = load ptr, ptr %2, align 8, !tbaa !4
  %5 = getelementptr inbounds nuw %struct.AVFilterContext, ptr %4, i32 0, i32 9
  %6 = load ptr, ptr %5, align 8, !tbaa !9
  store ptr %6, ptr %3, align 8, !tbaa !22
  %7 = load ptr, ptr %3, align 8, !tbaa !22
  %8 = getelementptr inbounds nuw %struct.HDCDContext, ptr %7, i32 0, i32 10
  store i32 0, ptr %8, align 8, !tbaa !24
  %9 = load ptr, ptr %2, align 8, !tbaa !4
  %10 = load ptr, ptr %3, align 8, !tbaa !22
  %11 = getelementptr inbounds nuw %struct.HDCDContext, ptr %10, i32 0, i32 9
  store ptr %9, ptr %11, align 8, !tbaa !28
  %12 = load ptr, ptr %3, align 8, !tbaa !22
  %13 = getelementptr inbounds nuw %struct.HDCDContext, ptr %12, i32 0, i32 8
  store i32 0, ptr %13, align 8, !tbaa !29
  %14 = load ptr, ptr %3, align 8, !tbaa !22
  %15 = getelementptr inbounds nuw %struct.HDCDContext, ptr %14, i32 0, i32 6
  %16 = load i32, ptr %15, align 8, !tbaa !30
  %17 = icmp ne i32 %16, 0
  br i1 %17, label %18, label %23

18:                                               ; preds = %1
  %19 = load ptr, ptr %2, align 8, !tbaa !4
  call void (ptr, i32, ptr, ...) @av_log(ptr noundef %19, i32 noundef 40, ptr noundef @.str.55)
  %20 = load ptr, ptr %2, align 8, !tbaa !4
  %21 = getelementptr inbounds nuw %struct.AVFilterContext, ptr %20, i32 0, i32 10
  %22 = load ptr, ptr %21, align 8, !tbaa !31
  call void @avfilter_graph_set_auto_convert(ptr noundef %22, i32 noundef -1)
  br label %23

23:                                               ; preds = %18, %1
  call void @llvm.lifetime.end.p0(i64 8, ptr %3) #7
  ret i32 0
}