; Function Attrs: cold nounwind optsize uwtable
define internal noundef i32 @init(ptr noundef %0) #0 {
  %2 = getelementptr inbounds nuw i8, ptr %0, i64 72
  %3 = load ptr, ptr %2, align 8, !tbaa !4
  %4 = getelementptr inbounds nuw i8, ptr %3, i64 320
  store i32 0, ptr %4, align 8, !tbaa !20
  %5 = getelementptr inbounds nuw i8, ptr %3, i64 312
  store ptr %0, ptr %5, align 8, !tbaa !25
  %6 = getelementptr inbounds nuw i8, ptr %3, i64 304
  store i32 0, ptr %6, align 8, !tbaa !26
  %7 = getelementptr inbounds nuw i8, ptr %3, i64 296
  %8 = load i32, ptr %7, align 8, !tbaa !27
  %.not = icmp eq i32 %8, 0
  br i1 %.not, label %12, label %9

9:                                                ; preds = %1
  tail call void (ptr, i32, ptr, ...) @av_log(ptr noundef nonnull %0, i32 noundef 40, ptr noundef nonnull @.str.55) #9
  %10 = getelementptr inbounds nuw i8, ptr %0, i64 80
  %11 = load ptr, ptr %10, align 8, !tbaa !28
  tail call void @avfilter_graph_set_auto_convert(ptr noundef %11, i32 noundef -1) #9
  br label %12

12:                                               ; preds = %9, %1
  ret i32 0
}